target datalayout = "e-m:e-p270:32:32-p271:32:32-p272:64:64-i64:64-i128:128-f80:128-n8:16:32:64-S128"
target triple = "x86_64-pc-linux-gnu"

%struct.AVBSFContext = type { ptr, ptr, ptr, ptr, ptr, %struct.AVRational, %struct.AVRational }
%struct.AVRational = type { i32, i32 }
%struct.FFBSFContext = type { %struct.AVBSFContext, ptr, i32 }
%struct.AVPacket = type { ptr, i64, i64, ptr, i32, i32, i32, ptr, i32, i64, i64, ptr, ptr, %struct.AVRational }

; Function Attrs: alwaysinline nounwind uwtable
define internal ptr @ffbsfcontext(ptr noundef %0) #2 {
  %2 = alloca ptr, align 8
  store ptr %0, ptr %2, align 8, !tbaa !10
  %3 = load ptr, ptr %2, align 8, !tbaa !10
  ret ptr %3
}

; Function Attrs: nounwind uwtable
define i32 @ff_bsf_get_packet(ptr noundef %0, ptr noundef %1) #0 {
  %3 = alloca i32, align 4
  %4 = alloca ptr, align 8
  %5 = alloca ptr, align 8
  %6 = alloca ptr, align 8
  %7 = alloca ptr, align 8
  %8 = alloca i32, align 4
  store ptr %0, ptr %4, align 8, !tbaa !10
  store ptr %1, ptr %5, align 8, !tbaa !63
  call void @llvm.lifetime.start.p0(i64 8, ptr %6) #6
  %9 = load ptr, ptr %4, align 8, !tbaa !10
  %10 = call ptr @ffbsfcontext(ptr noundef %9)
  store ptr %10, ptr %6, align 8, !tbaa !12
  call void @llvm.lifetime.start.p0(i64 8, ptr %7) #6
  %11 = load ptr, ptr %6, align 8, !tbaa !12
  %12 = getelementptr inbounds nuw %struct.FFBSFContext, ptr %11, i32 0, i32 2
  %13 = load i32, ptr %12, align 8, !tbaa !55
  %14 = icmp ne i32 %13, 0
  br i1 %14, label %15, label %16

15:                                               ; preds = %2
  store i32 -541478725, ptr %3, align 4
  store i32 1, ptr %8, align 4
  br label %44

16:                                               ; preds = %2
  %17 = load ptr, ptr %6, align 8, !tbaa !12
  %18 = getelementptr inbounds nuw %struct.FFBSFContext, ptr %17, i32 0, i32 1
  %19 = load ptr, ptr %18, align 8, !tbaa !34
  %20 = getelementptr inbounds nuw %struct.AVPacket, ptr %19, i32 0, i32 3
  %21 = load ptr, ptr %20, align 8, !tbaa !58
  %22 = icmp ne ptr %21, null
  br i1 %22, label %31, label %23

23:                                               ; preds = %16
  %24 = load ptr, ptr %6, align 8, !tbaa !12
  %25 = getelementptr inbounds nuw %struct.FFBSFContext, ptr %24, i32 0, i32 1
  %26 = load ptr, ptr %25, align 8, !tbaa !34
  %27 = getelementptr inbounds nuw %struct.AVPacket, ptr %26, i32 0, i32 8
  %28 = load i32, ptr %27, align 8, !tbaa !61
  %29 = icmp ne i32 %28, 0
  br i1 %29, label %31, label %30

30:                                               ; preds = %23
  store i32 -11, ptr %3, align 4
  store i32 1, ptr %8, align 4
  br label %44

31:                                               ; preds = %23, %16
  %32 = call ptr @av_packet_alloc()
  store ptr %32, ptr %7, align 8, !tbaa !57
  %33 = load ptr, ptr %7, align 8, !tbaa !57
  %34 = icmp ne ptr %33, null
  br i1 %34, label %36, label %35

35:                                               ; preds = %31
  store i32 -12, ptr %3, align 4
  store i32 1, ptr %8, align 4
  br label %44

36:                                               ; preds = %31
  %37 = load ptr, ptr %6, align 8, !tbaa !12
  %38 = getelementptr inbounds nuw %struct.FFBSFContext, ptr %37, i32 0, i32 1
  %39 = load ptr, ptr %38, align 8, !tbaa !34
  %40 = load ptr, ptr %5, align 8, !tbaa !63
  store ptr %39, ptr %40, align 8, !tbaa !57
  %41 = load ptr, ptr %7, align 8, !tbaa !57
  %42 = load ptr, ptr %6, align 8, !tbaa !12
  %43 = getelementptr inbounds nuw %struct.FFBSFContext, ptr %42, i32 0, i32 1
  store ptr %41, ptr %43, align 8, !tbaa !34
  store i32 0, ptr %3, align 4
  store i32 1, ptr %8, align 4
  br label %44

44:                                               ; preds = %36, %35, %30, %15
  call void @llvm.lifetime.end.p0(i64 8, ptr %7) #6
  call void @llvm.lifetime.end.p0(i64 8, ptr %6) #6
  %45 = load i32, ptr %3, align 4
  ret i32 %45
}