; Function Attrs: nounwind uwtable
define range(i32 -541478725, 1) i32 @ff_bsf_get_packet(ptr noundef captures(none) %0, ptr noundef writeonly captures(none) %1) local_unnamed_addr #0 {
  %3 = getelementptr inbounds nuw i8, ptr %0, i64 64
  %4 = load i32, ptr %3, align 8, !tbaa !47
  %.not = icmp eq i32 %4, 0
  br i1 %.not, label %5, label %17

5:                                                ; preds = %2
  %6 = getelementptr inbounds nuw i8, ptr %0, i64 56
  %7 = load ptr, ptr %6, align 8, !tbaa !27
  %8 = getelementptr inbounds nuw i8, ptr %7, i64 24
  %9 = load ptr, ptr %8, align 8, !tbaa !49
  %.not10 = icmp eq ptr %9, null
  br i1 %.not10, label %10, label %13

10:                                               ; preds = %5
  %11 = getelementptr inbounds nuw i8, ptr %7, i64 56
  %12 = load i32, ptr %11, align 8, !tbaa !52
  %.not11 = icmp eq i32 %12, 0
  br i1 %.not11, label %17, label %13

13:                                               ; preds = %10, %5
  %14 = tail call ptr @av_packet_alloc() #6
  %.not12 = icmp eq ptr %14, null
  br i1 %.not12, label %17, label %15

15:                                               ; preds = %13
  %16 = load ptr, ptr %6, align 8, !tbaa !27
  store ptr %16, ptr %1, align 8, !tbaa !54
  store ptr %14, ptr %6, align 8, !tbaa !27
  br label %17

17:                                               ; preds = %13, %10, %2, %15
  %.0 = phi i32 [ 0, %15 ], [ -541478725, %2 ], [ -11, %10 ], [ -12, %13 ]
  ret i32 %.0
}